; Function Attrs: mustprogress uwtable
define dso_local void @_ZNSt3__112future_errorC2ENS_10error_codeE(ptr noundef nonnull align 8 dereferenceable(32) %0, i32 %1, ptr %2) unnamed_addr #1 align 2 personality ptr @__gxx_personality_v0 {
  %4 = alloca %"class.std::__1::error_code", align 8
  %5 = alloca %"class.std::__1::basic_string", align 8
  store i32 %1, ptr %4, align 8
  %6 = getelementptr inbounds nuw i8, ptr %4, i64 8
  store ptr %2, ptr %6, align 8
  call void @llvm.lifetime.start.p0(i64 24, ptr nonnull %5) #21
  call void @_ZNKSt3__110error_code7messageEv(ptr dead_on_unwind nonnull writable sret(%"class.std::__1::basic_string") align 8 %5, ptr noundef nonnull align 8 dereferenceable(16) %4)
  invoke void @_ZNSt11logic_errorC2ERKNSt3__112basic_stringIcNS0_11char_traitsIcEENS0_9allocatorIcEEEE(ptr noundef nonnull align 8 dereferenceable(16) %0, ptr noundef nonnull align 8 dereferenceable(24) %5)
          to label %7 unwind label %16

7:                                                ; preds = %3
  %8 = load i8, ptr %5, align 8
  %9 = and i8 %8, 1
  %.not.i = icmp eq i8 %9, 0
  br i1 %.not.i, label %_ZNSt3__112basic_stringIcNS_11char_traitsIcEENS_9allocatorIcEEED2Ev.exit, label %10

10:                                               ; preds = %7
  %11 = getelementptr inbounds nuw i8, ptr %5, i64 16
  %12 = load ptr, ptr %11, align 8, !tbaa !4
  %13 = load i64, ptr %5, align 8
  %14 = and i64 %13, -2
  call void @_ZdlPvm(ptr noundef %12, i64 noundef %14) #22
  br label %_ZNSt3__112basic_stringIcNS_11char_traitsIcEENS_9allocatorIcEEED2Ev.exit

_ZNSt3__112basic_stringIcNS_11char_traitsIcEENS_9allocatorIcEEED2Ev.exit: ; preds = %7, %10
  call void @llvm.lifetime.end.p0(i64 24, ptr nonnull %5) #21
  store ptr getelementptr inbounds nuw inrange(-16, 24) (i8, ptr @_ZTVNSt3__112future_errorE, i64 16), ptr %0, align 8, !tbaa !8
  %15 = getelementptr inbounds nuw i8, ptr %0, i64 16
  call void @llvm.memcpy.p0.p0.i64(ptr noundef nonnull align 8 dereferenceable(16) %15, ptr noundef nonnull align 8 dereferenceable(16) %4, i64 16, i1 false), !tbaa.struct !10
  ret void

16:                                               ; preds = %3
  %17 = landingpad { ptr, i32 }
          cleanup
  %18 = load i8, ptr %5, align 8
  %19 = and i8 %18, 1
  %.not.i2 = icmp eq i8 %19, 0
  br i1 %.not.i2, label %_ZNSt3__112basic_stringIcNS_11char_traitsIcEENS_9allocatorIcEEED2Ev.exit3, label %20

20:                                               ; preds = %16
  %21 = getelementptr inbounds nuw i8, ptr %5, i64 16
  %22 = load ptr, ptr %21, align 8, !tbaa !4
  %23 = load i64, ptr %5, align 8
  %24 = and i64 %23, -2
  call void @_ZdlPvm(ptr noundef %22, i64 noundef %24) #22
  br label %_ZNSt3__112basic_stringIcNS_11char_traitsIcEENS_9allocatorIcEEED2Ev.exit3

_ZNSt3__112basic_stringIcNS_11char_traitsIcEENS_9allocatorIcEEED2Ev.exit3: ; preds = %16, %20
  call void @llvm.lifetime.end.p0(i64 24, ptr nonnull %5) #21
  resume { ptr, i32 } %17
}